; ModuleID = '24/2260.c'
source_filename = "24/2260.c"
target datalayout = "e-m:e-p270:32:32-p271:32:32-p272:64:64-i64:64-f80:128-n8:16:32:64-S128"
target triple = "x86_64-pc-linux-gnu"

; Function Attrs: noinline nounwind uwtable
define dso_local i32 @max(i32 %0, i32 %1) #0 {
  %3 = alloca i32, align 4
  %4 = alloca i32, align 4
  store i32 %0, i32* %3, align 4
  store i32 %1, i32* %4, align 4
  %5 = load i32, i32* %3, align 4
  %6 = load i32, i32* %4, align 4
  %7 = icmp sgt i32 %5, %6
  br i1 %7, label %8, label %10

8:                                                ; preds = %2
  %9 = load i32, i32* %3, align 4
  br label %12

10:                                               ; preds = %2
  %11 = load i32, i32* %4, align 4
  br label %12

12:                                               ; preds = %10, %8
  %13 = phi i32 [ %9, %8 ], [ %11, %10 ]
  ret i32 %13
}

; Function Attrs: noinline nounwind uwtable
define dso_local i32 @min(i32 %0, i32 %1) #0 {
  %3 = alloca i32, align 4
  %4 = alloca i32, align 4
  store i32 %0, i32* %3, align 4
  store i32 %1, i32* %4, align 4
  %5 = load i32, i32* %3, align 4
  %6 = load i32, i32* %4, align 4
  %7 = icmp slt i32 %5, %6
  br i1 %7, label %8, label %10

8:                                                ; preds = %2
  %9 = load i32, i32* %3, align 4
  br label %12

10:                                               ; preds = %2
  %11 = load i32, i32* %4, align 4
  br label %12

12:                                               ; preds = %10, %8
  %13 = phi i32 [ %9, %8 ], [ %11, %10 ]
  ret i32 %13
}

; Function Attrs: noinline nounwind uwtable
define dso_local i32 @main() #0 {
  %1 = alloca i32, align 4
  %2 = alloca i32, align 4
  %3 = alloca i32, align 4
  %4 = alloca i32, align 4
  %5 = alloca [200 x i32], align 16
  %6 = alloca i32, align 4
  %7 = alloca i32, align 4
  %8 = alloca i32, align 4
  %9 = alloca [200 x [50 x i8]], align 16
  %10 = alloca i8, align 1
  store i32 0, i32* %1, align 4
  store i32 0, i32* %2, align 4
  %11 = bitcast [200 x i32]* %5 to i8*
  call void @llvm.memset.p0i8.i64(i8* align 16 %11, i8 0, i64 800, i1 false)
  store i32 100, i32* %6, align 4
  store i32 0, i32* %7, align 4
  store i32 0, i32* %8, align 4
  br label %12

12:                                               ; preds = %0, %68
  %13 = call i32 @getchar()
  %14 = trunc i32 %13 to i8
  store i8 %14, i8* %10, align 1
  %15 = load i8, i8* %10, align 1
  %16 = sext i8 %15 to i32
  %17 = icmp sge i32 %16, 97
  br i1 %17, label %18, label %22

18:                                               ; preds = %12
  %19 = load i8, i8* %10, align 1
  %20 = sext i8 %19 to i32
  %21 = icmp sle i32 %20, 122
  br i1 %21, label %30, label %22

22:                                               ; preds = %18, %12
  %23 = load i8, i8* %10, align 1
  %24 = sext i8 %23 to i32
  %25 = icmp sge i32 %24, 65
  br i1 %25, label %26, label %44

26:                                               ; preds = %22
  %27 = load i8, i8* %10, align 1
  %28 = sext i8 %27 to i32
  %29 = icmp sle i32 %28, 90
  br i1 %29, label %30, label %44

30:                                               ; preds = %26, %18
  store i32 1, i32* %4, align 4
  %31 = load i32, i32* %8, align 4
  %32 = sext i32 %31 to i64
  %33 = getelementptr inbounds [200 x i32], [200 x i32]* %5, i64 0, i64 %32
  %34 = load i32, i32* %33, align 4
  %35 = add nsw i32 %34, 1
  store i32 %35, i32* %33, align 4
  %36 = load i8, i8* %10, align 1
  %37 = load i32, i32* %8, align 4
  %38 = sext i32 %37 to i64
  %39 = getelementptr inbounds [200 x [50 x i8]], [200 x [50 x i8]]* %9, i64 0, i64 %38
  %40 = load i32, i32* %2, align 4
  %41 = add nsw i32 %40, 1
  store i32 %41, i32* %2, align 4
  %42 = sext i32 %40 to i64
  %43 = getelementptr inbounds [50 x i8], [50 x i8]* %39, i64 0, i64 %42
  store i8 %36, i8* %43, align 1
  br label %63

44:                                               ; preds = %26, %22
  %45 = load i32, i32* %4, align 4
  %46 = icmp eq i32 %45, 1
  br i1 %46, label %47, label %62

47:                                               ; preds = %44
  %48 = load i32, i32* %7, align 4
  %49 = load i32, i32* %8, align 4
  %50 = sext i32 %49 to i64
  %51 = getelementptr inbounds [200 x i32], [200 x i32]* %5, i64 0, i64 %50
  %52 = load i32, i32* %51, align 4
  %53 = call i32 @max(i32 %48, i32 %52)
  store i32 %53, i32* %7, align 4
  %54 = load i32, i32* %6, align 4
  %55 = load i32, i32* %8, align 4
  %56 = sext i32 %55 to i64
  %57 = getelementptr inbounds [200 x i32], [200 x i32]* %5, i64 0, i64 %56
  %58 = load i32, i32* %57, align 4
  %59 = call i32 @min(i32 %54, i32 %58)
  store i32 %59, i32* %6, align 4
  store i32 0, i32* %4, align 4
  %60 = load i32, i32* %8, align 4
  %61 = add nsw i32 %60, 1
  store i32 %61, i32* %8, align 4
  store i32 0, i32* %2, align 4
  br label %62

62:                                               ; preds = %47, %44
  br label %63

63:                                               ; preds = %62, %30
  %64 = load i8, i8* %10, align 1
  %65 = sext i8 %64 to i32
  %66 = icmp eq i32 %65, 10
  br i1 %66, label %67, label %68

67:                                               ; preds = %63
  br label %69

68:                                               ; preds = %63
  br label %12

69:                                               ; preds = %67
  store i32 0, i32* %2, align 4
  br label %70

70:                                               ; preds = %101, %69
  %71 = load i32, i32* %2, align 4
  %72 = sext i32 %71 to i64
  %73 = getelementptr inbounds [200 x i32], [200 x i32]* %5, i64 0, i64 %72
  %74 = load i32, i32* %73, align 4
  %75 = load i32, i32* %7, align 4
  %76 = icmp eq i32 %74, %75
  br i1 %76, label %77, label %100

77:                                               ; preds = %70
  store i32 0, i32* %3, align 4
  br label %78

78:                                               ; preds = %95, %77
  %79 = load i32, i32* %3, align 4
  %80 = load i32, i32* %2, align 4
  %81 = sext i32 %80 to i64
  %82 = getelementptr inbounds [200 x i32], [200 x i32]* %5, i64 0, i64 %81
  %83 = load i32, i32* %82, align 4
  %84 = icmp slt i32 %79, %83
  br i1 %84, label %85, label %98

85:                                               ; preds = %78
  %86 = load i32, i32* %2, align 4
  %87 = sext i32 %86 to i64
  %88 = getelementptr inbounds [200 x [50 x i8]], [200 x [50 x i8]]* %9, i64 0, i64 %87
  %89 = load i32, i32* %3, align 4
  %90 = sext i32 %89 to i64
  %91 = getelementptr inbounds [50 x i8], [50 x i8]* %88, i64 0, i64 %90
  %92 = load i8, i8* %91, align 1
  %93 = sext i8 %92 to i32
  %94 = call i32 @putchar(i32 %93)
  br label %95

95:                                               ; preds = %85
  %96 = load i32, i32* %3, align 4
  %97 = add nsw i32 %96, 1
  store i32 %97, i32* %3, align 4
  br label %78

98:                                               ; preds = %78
  %99 = call i32 @putchar(i32 10)
  br label %104

100:                                              ; preds = %70
  br label %101

101:                                              ; preds = %100
  %102 = load i32, i32* %2, align 4
  %103 = add nsw i32 %102, 1
  store i32 %103, i32* %2, align 4
  br label %70

104:                                              ; preds = %98
  store i32 0, i32* %2, align 4
  br label %105

105:                                              ; preds = %136, %104
  %106 = load i32, i32* %2, align 4
  %107 = sext i32 %106 to i64
  %108 = getelementptr inbounds [200 x i32], [200 x i32]* %5, i64 0, i64 %107
  %109 = load i32, i32* %108, align 4
  %110 = load i32, i32* %6, align 4
  %111 = icmp eq i32 %109, %110
  br i1 %111, label %112, label %135

112:                                              ; preds = %105
  store i32 0, i32* %3, align 4
  br label %113

113:                                              ; preds = %130, %112
  %114 = load i32, i32* %3, align 4
  %115 = load i32, i32* %2, align 4
  %116 = sext i32 %115 to i64
  %117 = getelementptr inbounds [200 x i32], [200 x i32]* %5, i64 0, i64 %116
  %118 = load i32, i32* %117, align 4
  %119 = icmp slt i32 %114, %118
  br i1 %119, label %120, label %133

120:                                              ; preds = %113
  %121 = load i32, i32* %2, align 4
  %122 = sext i32 %121 to i64
  %123 = getelementptr inbounds [200 x [50 x i8]], [200 x [50 x i8]]* %9, i64 0, i64 %122
  %124 = load i32, i32* %3, align 4
  %125 = sext i32 %124 to i64
  %126 = getelementptr inbounds [50 x i8], [50 x i8]* %123, i64 0, i64 %125
  %127 = load i8, i8* %126, align 1
  %128 = sext i8 %127 to i32
  %129 = call i32 @putchar(i32 %128)
  br label %130

130:                                              ; preds = %120
  %131 = load i32, i32* %3, align 4
  %132 = add nsw i32 %131, 1
  store i32 %132, i32* %3, align 4
  br label %113

133:                                              ; preds = %113
  %134 = call i32 @putchar(i32 10)
  br label %139

135:                                              ; preds = %105
  br label %136

136:                                              ; preds = %135
  %137 = load i32, i32* %2, align 4
  %138 = add nsw i32 %137, 1
  store i32 %138, i32* %2, align 4
  br label %105

139:                                              ; preds = %133
  ret i32 0
}

; Function Attrs: argmemonly nounwind willreturn
declare void @llvm.memset.p0i8.i64(i8* nocapture writeonly, i8, i64, i1 immarg) #1

declare dso_local i32 @getchar() #2

declare dso_local i32 @putchar(i32) #2


!llvm.module.flags = !{!0}
!llvm.ident = !{!1}

!0 = !{i32 1, !"wchar_size", i32 4}
!1 = !{!"clang version 10.0.0-4ubuntu1 "}
